; Function Attrs: nounwind uwtable
define ptr @l_Lean_Linter_MissingDocs_addBuiltinHandler(ptr noundef %0, ptr noundef %1, ptr noundef %2) local_unnamed_addr #0 {
  %4 = load ptr, ptr @l_Lean_Linter_MissingDocs_initFn____x40_Lean_Linter_MissingDocs___hyg_370____lambda__1___closed__1, align 8, !tbaa !4
  %5 = tail call ptr @lean_st_ref_take(ptr noundef %4, ptr noundef %2) #5
  %6 = getelementptr inbounds nuw i8, ptr %5, i64 8
  %7 = load ptr, ptr %6, align 8, !tbaa !4
  %8 = ptrtoint ptr %7 to i64
  %9 = and i64 %8, 1
  %.not = icmp eq i64 %9, 0
  br i1 %.not, label %10, label %lean_inc.exit29

10:                                               ; preds = %3
  %.val.i = load i32, ptr %7, align 4, !tbaa !8
  %11 = icmp sgt i32 %.val.i, 0
  br i1 %11, label %12, label %14, !prof !11

12:                                               ; preds = %10
  %13 = add nuw i32 %.val.i, 1
  store i32 %13, ptr %7, align 4, !tbaa !8
  br label %lean_inc.exit29

14:                                               ; preds = %10
  %.not.i32 = icmp eq i32 %.val.i, 0
  br i1 %.not.i32, label %lean_inc.exit29, label %15

15:                                               ; preds = %14
  tail call void @lean_inc_ref_cold(ptr noundef nonnull %7) #5
  br label %lean_inc.exit29

lean_inc.exit29:                                  ; preds = %15, %14, %12, %3
  %16 = getelementptr inbounds nuw i8, ptr %5, i64 16
  %17 = load ptr, ptr %16, align 8, !tbaa !4
  %18 = ptrtoint ptr %17 to i64
  %19 = and i64 %18, 1
  %.not42 = icmp eq i64 %19, 0
  br i1 %.not42, label %20, label %lean_inc.exit28

20:                                               ; preds = %lean_inc.exit29
  %.val.i33 = load i32, ptr %17, align 4, !tbaa !8
  %21 = icmp sgt i32 %.val.i33, 0
  br i1 %21, label %22, label %24, !prof !11

22:                                               ; preds = %20
  %23 = add nuw i32 %.val.i33, 1
  store i32 %23, ptr %17, align 4, !tbaa !8
  br label %lean_inc.exit28

24:                                               ; preds = %20
  %.not.i34 = icmp eq i32 %.val.i33, 0
  br i1 %.not.i34, label %lean_inc.exit28, label %25

25:                                               ; preds = %24
  tail call void @lean_inc_ref_cold(ptr noundef nonnull %17) #5
  br label %lean_inc.exit28

lean_inc.exit28:                                  ; preds = %25, %24, %22, %lean_inc.exit29
  %26 = ptrtoint ptr %5 to i64
  %27 = and i64 %26, 1
  %.not43 = icmp eq i64 %27, 0
  br i1 %.not43, label %28, label %lean_dec.exit26

28:                                               ; preds = %lean_inc.exit28
  %29 = load i32, ptr %5, align 4, !tbaa !8
  %30 = icmp sgt i32 %29, 1
  br i1 %30, label %31, label %33, !prof !11

31:                                               ; preds = %28
  %32 = add nsw i32 %29, -1
  store i32 %32, ptr %5, align 4, !tbaa !8
  br label %lean_dec.exit26

33:                                               ; preds = %28
  %.not.i = icmp eq i32 %29, 0
  br i1 %.not.i, label %lean_dec.exit26, label %34

34:                                               ; preds = %33
  tail call void @lean_dec_ref_cold(ptr noundef nonnull %5) #5
  br label %lean_dec.exit26

lean_dec.exit26:                                  ; preds = %34, %33, %31, %lean_inc.exit28
  %35 = tail call ptr @l_Lean_RBNode_insert___at_Lean_NameMap_insert___spec__1___rarg(ptr noundef %7, ptr noundef %0, ptr noundef %1) #5
  %36 = tail call ptr @lean_st_ref_set(ptr noundef %4, ptr noundef %35, ptr noundef %17) #5
  %.val = load i32, ptr %36, align 4, !tbaa !8
  %37 = icmp eq i32 %.val, 1
  br i1 %37, label %74, label %38

38:                                               ; preds = %lean_dec.exit26
  %39 = getelementptr inbounds nuw i8, ptr %36, i64 8
  %40 = load ptr, ptr %39, align 8, !tbaa !4
  %41 = getelementptr inbounds nuw i8, ptr %36, i64 16
  %42 = load ptr, ptr %41, align 8, !tbaa !4
  %43 = ptrtoint ptr %42 to i64
  %44 = and i64 %43, 1
  %.not44 = icmp eq i64 %44, 0
  br i1 %.not44, label %45, label %lean_inc.exit27

45:                                               ; preds = %38
  %.val.i36 = load i32, ptr %42, align 4, !tbaa !8
  %46 = icmp sgt i32 %.val.i36, 0
  br i1 %46, label %47, label %49, !prof !11

47:                                               ; preds = %45
  %48 = add nuw i32 %.val.i36, 1
  store i32 %48, ptr %42, align 4, !tbaa !8
  br label %lean_inc.exit27

49:                                               ; preds = %45
  %.not.i37 = icmp eq i32 %.val.i36, 0
  br i1 %.not.i37, label %lean_inc.exit27, label %50

50:                                               ; preds = %49
  tail call void @lean_inc_ref_cold(ptr noundef nonnull %42) #5
  br label %lean_inc.exit27

lean_inc.exit27:                                  ; preds = %50, %49, %47, %38
  %51 = ptrtoint ptr %40 to i64
  %52 = and i64 %51, 1
  %.not45 = icmp eq i64 %52, 0
  br i1 %.not45, label %53, label %lean_inc.exit

53:                                               ; preds = %lean_inc.exit27
  %.val.i39 = load i32, ptr %40, align 4, !tbaa !8
  %54 = icmp sgt i32 %.val.i39, 0
  br i1 %54, label %55, label %57, !prof !11

55:                                               ; preds = %53
  %56 = add nuw i32 %.val.i39, 1
  store i32 %56, ptr %40, align 4, !tbaa !8
  br label %lean_inc.exit

57:                                               ; preds = %53
  %.not.i40 = icmp eq i32 %.val.i39, 0
  br i1 %.not.i40, label %lean_inc.exit, label %58

58:                                               ; preds = %57
  tail call void @lean_inc_ref_cold(ptr noundef nonnull %40) #5
  br label %lean_inc.exit

lean_inc.exit:                                    ; preds = %58, %57, %55, %lean_inc.exit27
  %59 = ptrtoint ptr %36 to i64
  %60 = and i64 %59, 1
  %.not46 = icmp eq i64 %60, 0
  br i1 %.not46, label %61, label %lean_dec.exit

61:                                               ; preds = %lean_inc.exit
  %62 = load i32, ptr %36, align 4, !tbaa !8
  %63 = icmp sgt i32 %62, 1
  br i1 %63, label %64, label %66, !prof !11

64:                                               ; preds = %61
  %65 = add nsw i32 %62, -1
  store i32 %65, ptr %36, align 4, !tbaa !8
  br label %lean_dec.exit

66:                                               ; preds = %61
  %.not.i30 = icmp eq i32 %62, 0
  br i1 %.not.i30, label %lean_dec.exit, label %67

67:                                               ; preds = %66
  tail call void @lean_dec_ref_cold(ptr noundef nonnull %36) #5
  br label %lean_dec.exit

lean_dec.exit:                                    ; preds = %67, %66, %64, %lean_inc.exit
  tail call void @lean_inc_heartbeat() #5
  %68 = tail call noalias ptr @mi_malloc_small(i64 noundef 24) #5
  %69 = icmp eq ptr %68, null
  br i1 %69, label %70, label %lean_alloc_ctor.exit

70:                                               ; preds = %lean_dec.exit
  tail call void @lean_internal_panic_out_of_memory() #6
  unreachable

lean_alloc_ctor.exit:                             ; preds = %lean_dec.exit
  %71 = getelementptr inbounds nuw i8, ptr %68, i64 4
  store i32 1, ptr %68, align 4, !tbaa !8
  store i32 131096, ptr %71, align 4
  %72 = getelementptr inbounds nuw i8, ptr %68, i64 8
  store ptr %40, ptr %72, align 8, !tbaa !4
  %73 = getelementptr inbounds nuw i8, ptr %68, i64 16
  store ptr %42, ptr %73, align 8, !tbaa !4
  br label %74

74:                                               ; preds = %lean_dec.exit26, %lean_alloc_ctor.exit
  %.0 = phi ptr [ %68, %lean_alloc_ctor.exit ], [ %36, %lean_dec.exit26 ]
  ret ptr %.0
}